target datalayout = "e-m:e-p270:32:32-p271:32:32-p272:64:64-i64:64-i128:128-f80:128-n8:16:32:64-S128"
target triple = "x86_64-pc-linux-gnu"

%"class.std::__cxx11::basic_string" = type { %"struct.std::__cxx11::basic_string<char>::_Alloc_hider", i64, %union.anon }
%"struct.std::__cxx11::basic_string<char>::_Alloc_hider" = type { ptr }
%union.anon = type { i64, [8 x i8] }
%"class.pxrInternal_v0_24__pxrReserved__::TfCallContext" = type <{ ptr, ptr, i64, ptr, i8, [7 x i8] }>
%"class.pxrInternal_v0_24__pxrReserved__::TfDiagnosticBase" = type <{ %"class.pxrInternal_v0_24__pxrReserved__::TfCallContext", %"class.std::__cxx11::basic_string", %"class.pxrInternal_v0_24__pxrReserved__::TfEnum", %"class.std::__cxx11::basic_string", %"class.std::any", i64, i8, [7 x i8] }>
%"class.pxrInternal_v0_24__pxrReserved__::TfEnum" = type <{ ptr, i32, [4 x i8] }>
%"class.std::any" = type { ptr, %"union.std::any::_Storage" }
%"union.std::any::_Storage" = type { ptr }
%"union.std::any::_Arg" = type { ptr }
%"class.std::type_info" = type { ptr, ptr }

@_ZTIv = external constant ptr

; Function Attrs: mustprogress nounwind uwtable
define linkonce_odr noundef ptr @_ZNKSt9type_info4nameEv(ptr noundef nonnull align 8 dereferenceable(16) %0) #1 comdat align 2 {
  %2 = alloca ptr, align 8
  store ptr %0, ptr %2, align 8
  %3 = load ptr, ptr %2, align 8
  %4 = getelementptr inbounds nuw %"class.std::type_info", ptr %3, i32 0, i32 1
  %5 = load ptr, ptr %4, align 8
  %6 = getelementptr inbounds i8, ptr %5, i64 0
  %7 = load i8, ptr %6, align 1
  %8 = sext i8 %7 to i32
  %9 = icmp eq i32 %8, 42
  br i1 %9, label %10, label %14

10:                                               ; preds = %1
  %11 = getelementptr inbounds nuw %"class.std::type_info", ptr %3, i32 0, i32 1
  %12 = load ptr, ptr %11, align 8
  %13 = getelementptr inbounds i8, ptr %12, i64 1
  br label %17

14:                                               ; preds = %1
  %15 = getelementptr inbounds nuw %"class.std::type_info", ptr %3, i32 0, i32 1
  %16 = load ptr, ptr %15, align 8
  br label %17

17:                                               ; preds = %14, %10
  %18 = phi ptr [ %13, %10 ], [ %16, %14 ]
  ret ptr %18
}

; Function Attrs: mustprogress nounwind uwtable
define linkonce_odr noundef zeroext i1 @_ZNKSt3any9has_valueEv(ptr noundef nonnull align 8 dereferenceable(16) %0) #1 comdat align 2 {
  %2 = alloca ptr, align 8
  store ptr %0, ptr %2, align 8
  %3 = load ptr, ptr %2, align 8
  %4 = getelementptr inbounds nuw %"class.std::any", ptr %3, i32 0, i32 0
  %5 = load ptr, ptr %4, align 8
  %6 = icmp ne ptr %5, null
  ret i1 %6
}

; Function Attrs: mustprogress nounwind uwtable
define linkonce_odr noundef ptr @_ZNSt3any17_Manager_externalIN32pxrInternal_v0_24__pxrReserved__8TfStatusEE9_S_accessERKNS_8_StorageE(ptr noundef nonnull align 8 dereferenceable(8) %0) #1 comdat align 2 {
  %2 = alloca ptr, align 8
  store ptr %0, ptr %2, align 8
  %3 = load ptr, ptr %2, align 8
  %4 = load ptr, ptr %3, align 8
  ret ptr %4
}

; Function Attrs: mustprogress nounwind uwtable
define linkonce_odr noundef zeroext i1 @_ZNKSt9type_infoeqERKS_(ptr noundef nonnull align 8 dereferenceable(16) %0, ptr noundef nonnull align 8 dereferenceable(16) %1) #1 comdat align 2 {
  %3 = alloca i1, align 1
  %4 = alloca ptr, align 8
  %5 = alloca ptr, align 8
  store ptr %0, ptr %4, align 8
  store ptr %1, ptr %5, align 8
  %6 = load ptr, ptr %4, align 8
  %7 = getelementptr inbounds nuw %"class.std::type_info", ptr %6, i32 0, i32 1
  %8 = load ptr, ptr %7, align 8
  %9 = load ptr, ptr %5, align 8
  %10 = getelementptr inbounds nuw %"class.std::type_info", ptr %9, i32 0, i32 1
  %11 = load ptr, ptr %10, align 8
  %12 = icmp eq ptr %8, %11
  br i1 %12, label %13, label %14

13:                                               ; preds = %2
  store i1 true, ptr %3, align 1
  br label %30

14:                                               ; preds = %2
  %15 = getelementptr inbounds nuw %"class.std::type_info", ptr %6, i32 0, i32 1
  %16 = load ptr, ptr %15, align 8
  %17 = getelementptr inbounds i8, ptr %16, i64 0
  %18 = load i8, ptr %17, align 1
  %19 = sext i8 %18 to i32
  %20 = icmp ne i32 %19, 42
  br i1 %20, label %21, label %28

21:                                               ; preds = %14
  %22 = getelementptr inbounds nuw %"class.std::type_info", ptr %6, i32 0, i32 1
  %23 = load ptr, ptr %22, align 8
  %24 = load ptr, ptr %5, align 8
  %25 = call noundef ptr @_ZNKSt9type_info4nameEv(ptr noundef nonnull align 8 dereferenceable(16) %24) #10
  %26 = call i32 @strcmp(ptr noundef %23, ptr noundef %25) #10
  %27 = icmp eq i32 %26, 0
  br label %28

28:                                               ; preds = %21, %14
  %29 = phi i1 [ false, %14 ], [ %27, %21 ]
  store i1 %29, ptr %3, align 1
  br label %30

30:                                               ; preds = %28, %13
  %31 = load i1, ptr %3, align 1
  ret i1 %31
}

; Function Attrs: mustprogress nounwind uwtable
define linkonce_odr noundef nonnull align 8 dereferenceable(16) ptr @_ZNKSt3any4typeEv(ptr noundef nonnull align 8 dereferenceable(16) %0) #1 comdat align 2 personality ptr @__gxx_personality_v0 {
  %2 = alloca ptr, align 8
  %3 = alloca ptr, align 8
  %4 = alloca %"union.std::any::_Arg", align 8
  store ptr %0, ptr %3, align 8
  %5 = load ptr, ptr %3, align 8
  %6 = call noundef zeroext i1 @_ZNKSt3any9has_valueEv(ptr noundef nonnull align 8 dereferenceable(16) %5) #10
  br i1 %6, label %8, label %7

7:                                                ; preds = %1
  store ptr @_ZTIv, ptr %2, align 8
  br label %13

8:                                                ; preds = %1
  %9 = getelementptr inbounds nuw %"class.std::any", ptr %5, i32 0, i32 0
  %10 = load ptr, ptr %9, align 8
  invoke void %10(i32 noundef 1, ptr noundef %5, ptr noundef %4)
          to label %11 unwind label %15

11:                                               ; preds = %8
  %12 = load ptr, ptr %4, align 8
  store ptr %12, ptr %2, align 8
  br label %13

13:                                               ; preds = %11, %7
  %14 = load ptr, ptr %2, align 8
  ret ptr %14

15:                                               ; preds = %8
  %16 = landingpad { ptr, i32 }
          catch ptr null
  %17 = extractvalue { ptr, i32 } %16, 0
  call void @__clang_call_terminate(ptr %17) #12
  unreachable
}

; Function Attrs: mustprogress uwtable
define linkonce_odr noundef ptr @_ZSt12__any_casterIN32pxrInternal_v0_24__pxrReserved__8TfStatusEEPvPKSt3any(ptr noundef %0) #0 comdat {
  %2 = alloca ptr, align 8
  %3 = alloca ptr, align 8
  store ptr %0, ptr %3, align 8
  %4 = load ptr, ptr %3, align 8
  %5 = getelementptr inbounds nuw %"class.std::any", ptr %4, i32 0, i32 0
  %6 = load ptr, ptr %5, align 8
  %7 = icmp eq ptr %6, @_ZNSt3any17_Manager_externalIN32pxrInternal_v0_24__pxrReserved__8TfStatusEE9_S_manageENS_3_OpEPKS_PNS_4_ArgE
  br i1 %7, label %12, label %8

8:                                                ; preds = %1
  %9 = load ptr, ptr %3, align 8
  %10 = call noundef nonnull align 8 dereferenceable(16) ptr @_ZNKSt3any4typeEv(ptr noundef nonnull align 8 dereferenceable(16) %9) #10
  %11 = call noundef zeroext i1 @_ZNKSt9type_infoeqERKS_(ptr noundef nonnull align 8 dereferenceable(16) %10, ptr noundef nonnull align 8 dereferenceable(16) @_ZTIN32pxrInternal_v0_24__pxrReserved__8TfStatusE) #10
  br i1 %11, label %12, label %16

12:                                               ; preds = %8, %1
  %13 = load ptr, ptr %3, align 8
  %14 = getelementptr inbounds nuw %"class.std::any", ptr %13, i32 0, i32 1
  %15 = call noundef ptr @_ZNSt3any17_Manager_externalIN32pxrInternal_v0_24__pxrReserved__8TfStatusEE9_S_accessERKNS_8_StorageE(ptr noundef nonnull align 8 dereferenceable(8) %14)
  store ptr %15, ptr %2, align 8
  br label %17

16:                                               ; preds = %8
  store ptr null, ptr %2, align 8
  br label %17

17:                                               ; preds = %16, %12
  %18 = load ptr, ptr %2, align 8
  ret ptr %18
}

; Function Attrs: mustprogress nounwind uwtable
define linkonce_odr void @_ZNSt3any17_Manager_internalIPKN32pxrInternal_v0_24__pxrReserved__8TfStatusEE9_S_createIS4_EEvRNS_8_StorageEOT_(ptr noundef nonnull align 8 dereferenceable(8) %0, ptr noundef nonnull align 8 dereferenceable(8) %1) #1 comdat align 2 {
  %3 = alloca ptr, align 8
  %4 = alloca ptr, align 8
  %5 = alloca ptr, align 8
  store ptr %0, ptr %3, align 8
  store ptr %1, ptr %4, align 8
  %6 = load ptr, ptr %3, align 8
  store ptr %6, ptr %5, align 8
  %7 = load ptr, ptr %5, align 8
  %8 = load ptr, ptr %4, align 8
  %9 = load ptr, ptr %8, align 8
  store ptr %9, ptr %7, align 8
  ret void
}

; Function Attrs: mustprogress nounwind uwtable
define linkonce_odr void @_ZNSt3any8_StorageC2Ev(ptr noundef nonnull align 8 dereferenceable(8) %0) unnamed_addr #1 comdat align 2 {
  %2 = alloca ptr, align 8
  store ptr %0, ptr %2, align 8
  %3 = load ptr, ptr %2, align 8
  store ptr null, ptr %3, align 8
  ret void
}

; Function Attrs: mustprogress nounwind uwtable
define linkonce_odr noundef ptr @_ZSt8any_castIN32pxrInternal_v0_24__pxrReserved__8TfStatusEEPKT_PKSt3any(ptr noundef %0) #1 comdat personality ptr @__gxx_personality_v0 {
  %2 = alloca ptr, align 8
  %3 = alloca ptr, align 8
  store ptr %0, ptr %3, align 8
  %4 = load ptr, ptr %3, align 8
  %5 = icmp ne ptr %4, null
  br i1 %5, label %6, label %10

6:                                                ; preds = %1
  %7 = load ptr, ptr %3, align 8
  %8 = invoke noundef ptr @_ZSt12__any_casterIN32pxrInternal_v0_24__pxrReserved__8TfStatusEEPvPKSt3any(ptr noundef %7)
          to label %9 unwind label %13

9:                                                ; preds = %6
  store ptr %8, ptr %2, align 8
  br label %11

10:                                               ; preds = %1
  store ptr null, ptr %2, align 8
  br label %11

11:                                               ; preds = %10, %9
  %12 = load ptr, ptr %2, align 8
  ret ptr %12

13:                                               ; preds = %6
  %14 = landingpad { ptr, i32 }
          catch ptr null
  %15 = extractvalue { ptr, i32 } %14, 0
  call void @__clang_call_terminate(ptr %15) #12
  unreachable
}

; Function Attrs: mustprogress uwtable
define linkonce_odr void @_ZNSt3anyC2IPKN32pxrInternal_v0_24__pxrReserved__8TfStatusES4_NS_17_Manager_internalIS4_EETnNSt9enable_ifIXaa23is_copy_constructible_vIT0_Ent20__is_in_place_type_vIS8_EEbE4typeELb1EEEOT_(ptr noundef nonnull align 8 dereferenceable(16) %0, ptr noundef nonnull align 8 dereferenceable(8) %1) unnamed_addr #0 comdat align 2 {
  %3 = alloca ptr, align 8
  %4 = alloca ptr, align 8
  store ptr %0, ptr %3, align 8
  store ptr %1, ptr %4, align 8
  %5 = load ptr, ptr %3, align 8
  %6 = getelementptr inbounds nuw %"class.std::any", ptr %5, i32 0, i32 0
  store ptr @_ZNSt3any17_Manager_internalIPKN32pxrInternal_v0_24__pxrReserved__8TfStatusEE9_S_manageENS_3_OpEPKS_PNS_4_ArgE, ptr %6, align 8
  %7 = getelementptr inbounds nuw %"class.std::any", ptr %5, i32 0, i32 1
  call void @_ZNSt3any8_StorageC2Ev(ptr noundef nonnull align 8 dereferenceable(8) %7)
  %8 = getelementptr inbounds nuw %"class.std::any", ptr %5, i32 0, i32 1
  %9 = load ptr, ptr %4, align 8
  call void @_ZNSt3any17_Manager_internalIPKN32pxrInternal_v0_24__pxrReserved__8TfStatusEE9_S_createIS4_EEvRNS_8_StorageEOT_(ptr noundef nonnull align 8 dereferenceable(8) %8, ptr noundef nonnull align 8 dereferenceable(8) %9)
  ret void
}

; Function Attrs: mustprogress nounwind uwtable
define linkonce_odr noundef ptr @_ZNK32pxrInternal_v0_24__pxrReserved__16TfDiagnosticBase7GetInfoINS_8TfStatusEEEPKT_v(ptr noundef nonnull align 8 dereferenceable(145) %0) #1 comdat align 2 {
  %2 = alloca ptr, align 8
  store ptr %0, ptr %2, align 8
  %3 = load ptr, ptr %2, align 8
  %4 = getelementptr inbounds nuw %"class.pxrInternal_v0_24__pxrReserved__::TfDiagnosticBase", ptr %3, i32 0, i32 4
  %5 = call noundef ptr @_ZSt8any_castIN32pxrInternal_v0_24__pxrReserved__8TfStatusEEPKT_PKSt3any(ptr noundef %4) #10
  ret ptr %5
}

; Function Attrs: mustprogress nounwind uwtable
define linkonce_odr noundef nonnull align 8 dereferenceable(32) ptr @_ZNK32pxrInternal_v0_24__pxrReserved__16TfDiagnosticBase13GetCommentaryB5cxx11Ev(ptr noundef nonnull align 8 dereferenceable(145) %0) #1 comdat align 2 {
  %2 = alloca ptr, align 8
  store ptr %0, ptr %2, align 8
  %3 = load ptr, ptr %2, align 8
  %4 = getelementptr inbounds nuw %"class.pxrInternal_v0_24__pxrReserved__::TfDiagnosticBase", ptr %3, i32 0, i32 1
  ret ptr %4
}

; Function Attrs: mustprogress nounwind uwtable
define linkonce_odr noundef nonnull align 8 dereferenceable(33) ptr @_ZNK32pxrInternal_v0_24__pxrReserved__16TfDiagnosticBase10GetContextEv(ptr noundef nonnull align 8 dereferenceable(145) %0) #1 comdat align 2 {
  %2 = alloca ptr, align 8
  store ptr %0, ptr %2, align 8
  %3 = load ptr, ptr %2, align 8
  %4 = getelementptr inbounds nuw %"class.pxrInternal_v0_24__pxrReserved__::TfDiagnosticBase", ptr %3, i32 0, i32 0
  ret ptr %4
}

; Function Attrs: mustprogress nounwind uwtable
define linkonce_odr { ptr, i32 } @_ZNK32pxrInternal_v0_24__pxrReserved__16TfDiagnosticBase17GetDiagnosticCodeEv(ptr noundef nonnull align 8 dereferenceable(145) %0) #1 comdat align 2 {
  %2 = alloca %"class.pxrInternal_v0_24__pxrReserved__::TfEnum", align 8
  %3 = alloca ptr, align 8
  store ptr %0, ptr %3, align 8
  %4 = load ptr, ptr %3, align 8
  %5 = getelementptr inbounds nuw %"class.pxrInternal_v0_24__pxrReserved__::TfDiagnosticBase", ptr %4, i32 0, i32 2
  call void @llvm.memcpy.p0.p0.i64(ptr align 8 %2, ptr align 8 %5, i64 16, i1 false)
  %6 = load { ptr, i32 }, ptr %2, align 8
  ret { ptr, i32 } %6
}

; Function Attrs: mustprogress uwtable
define void @_ZN32pxrInternal_v0_24__pxrReserved__42UsdUtilsConditionalAbortDiagnosticDelegate11IssueStatusERKNS_8TfStatusE(ptr noundef nonnull align 8 dereferenceable(104) %0, ptr noundef nonnull align 8 dereferenceable(145) %1) unnamed_addr #0 align 2 personality ptr @__gxx_personality_v0 {
  %3 = alloca ptr, align 8
  %4 = alloca ptr, align 8
  %5 = alloca %"class.pxrInternal_v0_24__pxrReserved__::TfEnum", align 8
  %6 = alloca { ptr, i32 }, align 8
  %7 = alloca %"class.std::any", align 8
  %8 = alloca ptr, align 8
  %9 = alloca ptr, align 8
  %10 = alloca i32, align 4
  store ptr %0, ptr %3, align 8
  store ptr %1, ptr %4, align 8
  %11 = load ptr, ptr %4, align 8
  %12 = call { ptr, i32 } @_ZNK32pxrInternal_v0_24__pxrReserved__16TfDiagnosticBase17GetDiagnosticCodeEv(ptr noundef nonnull align 8 dereferenceable(145) %11)
  store { ptr, i32 } %12, ptr %6, align 8
  call void @llvm.memcpy.p0.p0.i64(ptr align 8 %5, ptr align 8 %6, i64 12, i1 false)
  %13 = load ptr, ptr %4, align 8
  %14 = call noundef nonnull align 8 dereferenceable(33) ptr @_ZNK32pxrInternal_v0_24__pxrReserved__16TfDiagnosticBase10GetContextEv(ptr noundef nonnull align 8 dereferenceable(145) %13)
  %15 = load ptr, ptr %4, align 8
  %16 = call noundef nonnull align 8 dereferenceable(32) ptr @_ZNK32pxrInternal_v0_24__pxrReserved__16TfDiagnosticBase13GetCommentaryB5cxx11Ev(ptr noundef nonnull align 8 dereferenceable(145) %15)
  %17 = load ptr, ptr %4, align 8
  %18 = call noundef ptr @_ZNK32pxrInternal_v0_24__pxrReserved__16TfDiagnosticBase7GetInfoINS_8TfStatusEEEPKT_v(ptr noundef nonnull align 8 dereferenceable(145) %17)
  store ptr %18, ptr %8, align 8
  call void @_ZNSt3anyC2IPKN32pxrInternal_v0_24__pxrReserved__8TfStatusES4_NS_17_Manager_internalIS4_EETnNSt9enable_ifIXaa23is_copy_constructible_vIT0_Ent20__is_in_place_type_vIS8_EEbE4typeELb1EEEOT_(ptr noundef nonnull align 8 dereferenceable(16) %7, ptr noundef nonnull align 8 dereferenceable(8) %8)
  invoke void @_ZN32pxrInternal_v0_24__pxrReserved__16_PrintDiagnosticERKNS_6TfEnumERKNS_13TfCallContextERKNSt7__cxx1112basic_stringIcSt11char_traitsIcESaIcEEERKSt3any(ptr noundef nonnull align 8 dereferenceable(12) %5, ptr noundef nonnull align 8 dereferenceable(33) %14, ptr noundef nonnull align 8 dereferenceable(32) %16, ptr noundef nonnull align 8 dereferenceable(16) %7)
          to label %19 unwind label %20

19:                                               ; preds = %2
  call void @_ZNSt3anyD2Ev(ptr noundef nonnull align 8 dereferenceable(16) %7) #10
  ret void

20:                                               ; preds = %2
  %21 = landingpad { ptr, i32 }
          cleanup
  %22 = extractvalue { ptr, i32 } %21, 0
  store ptr %22, ptr %9, align 8
  %23 = extractvalue { ptr, i32 } %21, 1
  store i32 %23, ptr %10, align 4
  call void @_ZNSt3anyD2Ev(ptr noundef nonnull align 8 dereferenceable(16) %7) #10
  br label %24

24:                                               ; preds = %20
  %25 = load ptr, ptr %9, align 8
  %26 = load i32, ptr %10, align 4
  %27 = insertvalue { ptr, i32 } poison, ptr %25, 0
  %28 = insertvalue { ptr, i32 } %27, i32 %26, 1
  resume { ptr, i32 } %28
}