; Function Attrs: mustprogress uwtable
define void @_ZN32pxrInternal_v0_24__pxrReserved__42UsdUtilsConditionalAbortDiagnosticDelegate11IssueStatusERKNS_8TfStatusE(ptr nonnull readnone align 8 captures(none) %0, ptr noundef nonnull align 8 dereferenceable(145) %1) unnamed_addr #0 align 2 personality ptr @__gxx_personality_v0 {
  %3 = alloca %"union.std::any::_Arg", align 8
  %4 = alloca %"class.pxrInternal_v0_24__pxrReserved__::TfEnum", align 8
  %5 = alloca %"class.std::any", align 8
  %6 = getelementptr inbounds nuw i8, ptr %1, i64 72
  %.sroa.0.0.copyload.i = load ptr, ptr %6, align 8
  %.sroa.2.0..sroa_idx.i = getelementptr inbounds nuw i8, ptr %1, i64 80
  %.sroa.2.0.copyload.i = load i32, ptr %.sroa.2.0..sroa_idx.i, align 8
  store ptr %.sroa.0.0.copyload.i, ptr %4, align 8
  %.sroa.2.0..sroa_idx = getelementptr inbounds nuw i8, ptr %4, i64 8
  store i32 %.sroa.2.0.copyload.i, ptr %.sroa.2.0..sroa_idx, align 8
  %7 = getelementptr inbounds nuw i8, ptr %1, i64 40
  %8 = getelementptr inbounds nuw i8, ptr %1, i64 120
  %9 = load ptr, ptr %8, align 8
  %10 = icmp eq ptr %9, @_ZNSt3any17_Manager_externalIN32pxrInternal_v0_24__pxrReserved__8TfStatusEE9_S_manageENS_3_OpEPKS_PNS_4_ArgE
  br i1 %10, label %_ZNKSt9type_infoeqERKS_.exit.thread.i.i.i, label %11

11:                                               ; preds = %2
  call void @llvm.lifetime.start.p0(i64 8, ptr nonnull %3)
  %.not.i.i.i.i = icmp eq ptr %9, null
  br i1 %.not.i.i.i.i, label %_ZNKSt3any4typeEv.exit.i.i.i, label %12

12:                                               ; preds = %11
  invoke void %9(i32 noundef 1, ptr noundef nonnull align 8 dereferenceable(16) %8, ptr noundef nonnull %3)
          to label %13 unwind label %15

13:                                               ; preds = %12
  %14 = load ptr, ptr %3, align 8
  br label %_ZNKSt3any4typeEv.exit.i.i.i

15:                                               ; preds = %12
  %16 = landingpad { ptr, i32 }
          catch ptr null
  %17 = extractvalue { ptr, i32 } %16, 0
  call void @__clang_call_terminate(ptr %17) #23
  unreachable

_ZNKSt3any4typeEv.exit.i.i.i:                     ; preds = %13, %11
  %.0.i.i.i.i = phi ptr [ %14, %13 ], [ @_ZTIv, %11 ]
  call void @llvm.lifetime.end.p0(i64 8, ptr nonnull %3)
  %18 = getelementptr inbounds nuw i8, ptr %.0.i.i.i.i, i64 8
  %19 = load ptr, ptr %18, align 8
  %20 = icmp eq ptr %19, @_ZTSN32pxrInternal_v0_24__pxrReserved__8TfStatusE
  br i1 %20, label %_ZNKSt9type_infoeqERKS_.exit.thread.i.i.i, label %21

21:                                               ; preds = %_ZNKSt3any4typeEv.exit.i.i.i
  %22 = load i8, ptr %19, align 1
  %.not.i4.i.i.i = icmp eq i8 %22, 42
  br i1 %.not.i4.i.i.i, label %_ZNK32pxrInternal_v0_24__pxrReserved__16TfDiagnosticBase7GetInfoINS_8TfStatusEEEPKT_v.exit, label %_ZNKSt9type_infoeqERKS_.exit.i.i.i

_ZNKSt9type_infoeqERKS_.exit.i.i.i:               ; preds = %21
  %23 = call i32 @strcmp(ptr noundef nonnull dereferenceable(1) %19, ptr noundef nonnull dereferenceable(46) @_ZTSN32pxrInternal_v0_24__pxrReserved__8TfStatusE) #19
  %24 = icmp eq i32 %23, 0
  br i1 %24, label %_ZNKSt9type_infoeqERKS_.exit.thread.i.i.i, label %_ZNK32pxrInternal_v0_24__pxrReserved__16TfDiagnosticBase7GetInfoINS_8TfStatusEEEPKT_v.exit

_ZNKSt9type_infoeqERKS_.exit.thread.i.i.i:        ; preds = %_ZNKSt9type_infoeqERKS_.exit.i.i.i, %_ZNKSt3any4typeEv.exit.i.i.i, %2
  %25 = getelementptr inbounds nuw i8, ptr %1, i64 128
  %26 = load ptr, ptr %25, align 8
  br label %_ZNK32pxrInternal_v0_24__pxrReserved__16TfDiagnosticBase7GetInfoINS_8TfStatusEEEPKT_v.exit

_ZNK32pxrInternal_v0_24__pxrReserved__16TfDiagnosticBase7GetInfoINS_8TfStatusEEEPKT_v.exit: ; preds = %21, %_ZNKSt9type_infoeqERKS_.exit.i.i.i, %_ZNKSt9type_infoeqERKS_.exit.thread.i.i.i
  %.0.i.i = phi ptr [ %26, %_ZNKSt9type_infoeqERKS_.exit.thread.i.i.i ], [ null, %_ZNKSt9type_infoeqERKS_.exit.i.i.i ], [ null, %21 ]
  store ptr @_ZNSt3any17_Manager_internalIPKN32pxrInternal_v0_24__pxrReserved__8TfStatusEE9_S_manageENS_3_OpEPKS_PNS_4_ArgE, ptr %5, align 8
  %27 = getelementptr inbounds nuw i8, ptr %5, i64 8
  store ptr %.0.i.i, ptr %27, align 8
  invoke void @_ZN32pxrInternal_v0_24__pxrReserved__16_PrintDiagnosticERKNS_6TfEnumERKNS_13TfCallContextERKNSt7__cxx1112basic_stringIcSt11char_traitsIcESaIcEEERKSt3any(ptr noundef nonnull align 8 dereferenceable(12) %4, ptr noundef nonnull align 8 dereferenceable(33) %1, ptr noundef nonnull align 8 dereferenceable(32) %7, ptr noundef nonnull align 8 dereferenceable(16) %5)
          to label %28 unwind label %34

28:                                               ; preds = %_ZNK32pxrInternal_v0_24__pxrReserved__16TfDiagnosticBase7GetInfoINS_8TfStatusEEEPKT_v.exit
  %29 = load ptr, ptr %5, align 8
  %.not.i.i = icmp eq ptr %29, null
  br i1 %.not.i.i, label %_ZNSt3anyD2Ev.exit, label %30

30:                                               ; preds = %28
  invoke void %29(i32 noundef 3, ptr noundef nonnull align 8 dereferenceable(16) %5, ptr noundef null)
          to label %_ZNSt3anyD2Ev.exit unwind label %31

31:                                               ; preds = %30
  %32 = landingpad { ptr, i32 }
          catch ptr null
  %33 = extractvalue { ptr, i32 } %32, 0
  call void @__clang_call_terminate(ptr %33) #23
  unreachable

_ZNSt3anyD2Ev.exit:                               ; preds = %30, %28
  ret void

34:                                               ; preds = %_ZNK32pxrInternal_v0_24__pxrReserved__16TfDiagnosticBase7GetInfoINS_8TfStatusEEEPKT_v.exit
  %35 = landingpad { ptr, i32 }
          cleanup
  call void @_ZNSt3anyD2Ev(ptr noundef nonnull align 8 dereferenceable(16) %5) #19
  resume { ptr, i32 } %35
}